target datalayout = "e-m:e-p270:32:32-p271:32:32-p272:64:64-i64:64-i128:128-f80:128-n8:16:32:64-S128"
target triple = "x86_64-pc-linux-gnu"

%struct.evp_keymgmt_st = type { i32, i32, i32, ptr, ptr, ptr, %struct.CRYPTO_REF_COUNT, ptr, ptr, ptr, ptr, ptr, ptr, ptr, ptr, ptr, ptr, ptr, ptr, ptr, ptr, ptr, ptr, ptr, ptr, ptr, ptr, ptr, ptr, ptr, ptr, ptr, ptr }
%struct.CRYPTO_REF_COUNT = type { i32 }

; Function Attrs: nounwind uwtable
define i32 @evp_keymgmt_export(ptr noundef %0, ptr noundef %1, i32 noundef %2, ptr noundef %3, ptr noundef %4) #0 {
  %6 = alloca i32, align 4
  %7 = alloca ptr, align 8
  %8 = alloca ptr, align 8
  %9 = alloca i32, align 4
  %10 = alloca ptr, align 8
  %11 = alloca ptr, align 8
  store ptr %0, ptr %7, align 8, !tbaa !18
  store ptr %1, ptr %8, align 8, !tbaa !58
  store i32 %2, ptr %9, align 4, !tbaa !10
  store ptr %3, ptr %10, align 8, !tbaa !58
  store ptr %4, ptr %11, align 8, !tbaa !58
  %12 = load ptr, ptr %7, align 8, !tbaa !18
  %13 = getelementptr inbounds nuw %struct.evp_keymgmt_st, ptr %12, i32 0, i32 29
  %14 = load ptr, ptr %13, align 8, !tbaa !51
  %15 = icmp eq ptr %14, null
  br i1 %15, label %16, label %17

16:                                               ; preds = %5
  store i32 0, ptr %6, align 4
  br label %26

17:                                               ; preds = %5
  %18 = load ptr, ptr %7, align 8, !tbaa !18
  %19 = getelementptr inbounds nuw %struct.evp_keymgmt_st, ptr %18, i32 0, i32 29
  %20 = load ptr, ptr %19, align 8, !tbaa !51
  %21 = load ptr, ptr %8, align 8, !tbaa !58
  %22 = load i32, ptr %9, align 4, !tbaa !10
  %23 = load ptr, ptr %10, align 8, !tbaa !58
  %24 = load ptr, ptr %11, align 8, !tbaa !58
  %25 = call i32 %20(ptr noundef %21, i32 noundef %22, ptr noundef %23, ptr noundef %24)
  store i32 %25, ptr %6, align 4
  br label %26

26:                                               ; preds = %17, %16
  %27 = load i32, ptr %6, align 4
  ret i32 %27
}