; Function Attrs: nounwind uwtable
define i32 @evp_keymgmt_export(ptr noundef readonly captures(none) %0, ptr noundef %1, i32 noundef %2, ptr noundef %3, ptr noundef %4) local_unnamed_addr #0 {
  %6 = getelementptr inbounds nuw i8, ptr %0, i64 224
  %7 = load ptr, ptr %6, align 8, !tbaa !46
  %8 = icmp eq ptr %7, null
  br i1 %8, label %11, label %9

9:                                                ; preds = %5
  %10 = tail call i32 %7(ptr noundef %1, i32 noundef %2, ptr noundef %3, ptr noundef %4) #5
  br label %11

11:                                               ; preds = %5, %9
  %.0 = phi i32 [ %10, %9 ], [ 0, %5 ]
  ret i32 %.0
}